; Function Attrs: nounwind uwtable
define internal noalias ptr @PrivateKeyInfo_der2ml_dsa_87_newctx(ptr noundef %0) #0 {
  %2 = tail call noalias ptr @CRYPTO_zalloc(i64 noundef 280, ptr noundef nonnull @.str, i32 noundef 141) #7
  %.not.i = icmp eq ptr %2, null
  br i1 %.not.i, label %der2key_newctx.exit, label %3

3:                                                ; preds = %1
  store ptr %0, ptr %2, align 8, !tbaa !3
  %4 = getelementptr inbounds nuw i8, ptr %2, i64 264
  store ptr @PrivateKeyInfo_ml_dsa_87_desc, ptr %4, align 8, !tbaa !11
  br label %der2key_newctx.exit

der2key_newctx.exit:                              ; preds = %1, %3
  ret ptr %2
}